; Function Attrs: null_pointer_is_valid sspstrong uwtable
define internal void @dis_iei_csm16(ptr noundef %0, ptr noundef %1, ptr noundef %2, i32 noundef %3, i8 noundef zeroext %4, ptr noundef writeonly captures(none) %5) unnamed_addr #0 {
  %.not = icmp eq i8 %4, 4
  br i1 %.not, label %10, label %7

7:                                                ; preds = %6
  %8 = zext i8 %4 to i32
  %9 = tail call ptr @proto_tree_add_expert(ptr noundef %2, ptr noundef %1, ptr noundef nonnull @ei_gsm_sms_unexpected_data_length, ptr noundef %0, i32 noundef %3, i32 noundef %8)
  br label %29

10:                                               ; preds = %6
  %11 = tail call zeroext i16 @tvb_get_ntohs(ptr noundef %0, i32 noundef %3)
  store i16 %11, ptr %5, align 2
  %12 = load i32, ptr @hf_gsm_sms_ud_multiple_messages_msg_id, align 4
  %13 = zext i16 %11 to i32
  %14 = tail call ptr @proto_tree_add_uint(ptr noundef %2, i32 noundef %12, ptr noundef %0, i32 noundef %3, i32 noundef 2, i32 noundef %13)
  %15 = add i32 %3, 2
  %16 = tail call zeroext i8 @tvb_get_uint8(ptr noundef %0, i32 noundef %15)
  %17 = zext i8 %16 to i16
  %18 = getelementptr inbounds nuw i8, ptr %5, i64 2
  store i16 %17, ptr %18, align 2
  %19 = load i32, ptr @hf_gsm_sms_ud_multiple_messages_msg_parts, align 4
  %20 = zext i8 %16 to i32
  %21 = tail call ptr @proto_tree_add_uint(ptr noundef %2, i32 noundef %19, ptr noundef %0, i32 noundef %15, i32 noundef 1, i32 noundef %20)
  %22 = add i32 %3, 3
  %23 = tail call zeroext i8 @tvb_get_uint8(ptr noundef %0, i32 noundef %22)
  %24 = zext i8 %23 to i16
  %25 = getelementptr inbounds nuw i8, ptr %5, i64 4
  store i16 %24, ptr %25, align 2
  %26 = load i32, ptr @hf_gsm_sms_ud_multiple_messages_msg_part, align 4
  %27 = zext i8 %23 to i32
  %28 = tail call ptr @proto_tree_add_uint(ptr noundef %2, i32 noundef %26, ptr noundef %0, i32 noundef %22, i32 noundef 1, i32 noundef %27)
  br label %29

29:                                               ; preds = %10, %7
  ret void
}